target datalayout = "e-m:e-p270:32:32-p271:32:32-p272:64:64-i64:64-i128:128-f80:128-n8:16:32:64-S128"
target triple = "x86_64-unknown-linux-gnu"

%struct.static_call_key = type { ptr, %union.anon.17 }
%union.anon.17 = type { i64 }
%struct.vm_event_state = type { [74 x i64] }
%struct.pcpu_hot = type { %union.anon.18 }
%union.anon.18 = type { %struct.anon.19, [16 x i8] }
%struct.anon.19 = type { ptr, i32, i32, i64, i64, ptr, i16, i8 }

@drop_caches_sysctl_handler.stfu = internal unnamed_addr global i32 0, align 4
@sysctl_drop_caches = dso_local local_unnamed_addr global i32 0, align 4
@.str = private unnamed_addr constant [28 x i8] c"\016%s (%d): drop_caches: %d\0A\00", align 1
@_cond_resched.__UNIQUE_ID___addressable___SCK__cond_resched151 = internal global ptr @__SCK__cond_resched, section ".discard.addressable", align 8
@__SCK__cond_resched = external dso_local global %struct.static_call_key, align 8
@vm_event_states = external dso_local global %struct.vm_event_state, section ".data..percpu", align 8
@pcpu_hot = external dso_local global %struct.pcpu_hot, section ".data..percpu..shared_aligned", align 64
@llvm.compiler.used = appending global [1 x ptr] [ptr @_cond_resched.__UNIQUE_ID___addressable___SCK__cond_resched151], section "llvm.metadata"

; Function Attrs: fn_ret_thunk_extern nounwind null_pointer_is_valid
define dso_local i32 @drop_caches_sysctl_handler(ptr noundef %0, i32 noundef %1, ptr noundef %2, ptr noundef %3, ptr noundef %4) local_unnamed_addr #0 align 16 {
  %6 = tail call i32 @proc_dointvec_minmax(ptr noundef %0, i32 noundef %1, ptr noundef %2, ptr noundef %3, ptr noundef %4) #3
  %7 = icmp eq i32 %6, 0
  br i1 %7, label %8, label %36

8:                                                ; preds = %5
  %9 = icmp eq i32 %1, 0
  br i1 %9, label %36, label %10

10:                                               ; preds = %8
  %11 = load i32, ptr @sysctl_drop_caches, align 4
  %12 = and i32 %11, 1
  %13 = icmp eq i32 %12, 0
  br i1 %13, label %15, label %14

14:                                               ; preds = %10
  tail call void @lru_add_drain_all() #3
  tail call void @iterate_supers(ptr noundef nonnull @drop_pagecache_sb, ptr noundef null) #3
  tail call void asm sideeffect "incq %gs:$0", "=*m,*m,~{dirflag},~{fpsr},~{flags}"(ptr nonnull elementtype(i64) getelementptr inbounds (%struct.vm_event_state, ptr @vm_event_states, i64 0, i32 0, i64 44), ptr nonnull elementtype(i64) getelementptr inbounds (%struct.vm_event_state, ptr @vm_event_states, i64 0, i32 0, i64 44)) #3, !srcloc !5
  br label %15

15:                                               ; preds = %14, %10
  %16 = load i32, ptr @sysctl_drop_caches, align 4
  %17 = and i32 %16, 2
  %18 = icmp eq i32 %17, 0
  br i1 %18, label %20, label %19

19:                                               ; preds = %15
  tail call void @drop_slab() #3
  tail call void asm sideeffect "incq %gs:$0", "=*m,*m,~{dirflag},~{fpsr},~{flags}"(ptr nonnull elementtype(i64) getelementptr inbounds (%struct.vm_event_state, ptr @vm_event_states, i64 0, i32 0, i64 45), ptr nonnull elementtype(i64) getelementptr inbounds (%struct.vm_event_state, ptr @vm_event_states, i64 0, i32 0, i64 45)) #3, !srcloc !5
  br label %20

20:                                               ; preds = %19, %15
  %21 = load i32, ptr @drop_caches_sysctl_handler.stfu, align 4
  %22 = icmp eq i32 %21, 0
  br i1 %22, label %23, label %31

23:                                               ; preds = %20
  %24 = tail call i64 asm "movq %gs:${1:P}, $0", "=r,p,~{dirflag},~{fpsr},~{flags}"(ptr nonnull @pcpu_hot) #4, !srcloc !6
  %25 = inttoptr i64 %24 to ptr
  %26 = getelementptr inbounds i8, ptr %25, i64 1800
  %27 = getelementptr inbounds i8, ptr %25, i64 1320
  %28 = load i32, ptr %27, align 8
  %29 = load i32, ptr @sysctl_drop_caches, align 4
  %30 = tail call i32 (ptr, ...) @_printk(ptr noundef nonnull @.str, ptr noundef %26, i32 noundef %28, i32 noundef %29) #5
  br label %31

31:                                               ; preds = %23, %20
  %32 = load i32, ptr @sysctl_drop_caches, align 4
  %33 = and i32 %32, 4
  %34 = load i32, ptr @drop_caches_sysctl_handler.stfu, align 4
  %35 = or i32 %34, %33
  store i32 %35, ptr @drop_caches_sysctl_handler.stfu, align 4
  br label %36

36:                                               ; preds = %31, %8, %5
  %37 = phi i32 [ %6, %5 ], [ 0, %31 ], [ 0, %8 ]
  ret i32 %37
}

; Function Attrs: null_pointer_is_valid
declare dso_local i32 @proc_dointvec_minmax(ptr noundef, i32 noundef, ptr noundef, ptr noundef, ptr noundef) local_unnamed_addr #1

; Function Attrs: null_pointer_is_valid
declare dso_local void @lru_add_drain_all() local_unnamed_addr #1

; Function Attrs: null_pointer_is_valid
declare dso_local void @iterate_supers(ptr noundef, ptr noundef) local_unnamed_addr #1

; Function Attrs: fn_ret_thunk_extern nounwind null_pointer_is_valid
define internal void @drop_pagecache_sb(ptr noundef %0, ptr nocapture readnone %1) #0 align 16 {
  %3 = getelementptr inbounds i8, ptr %0, i64 1216
  tail call void @_raw_spin_lock(ptr noundef %3) #3
  %4 = getelementptr inbounds i8, ptr %0, i64 1224
  %5 = load ptr, ptr %4, align 8
  %6 = icmp eq ptr %5, %4
  br i1 %6, label %37, label %7

7:                                                ; preds = %33, %2
  %8 = phi ptr [ %35, %33 ], [ %5, %2 ]
  %9 = phi ptr [ %34, %33 ], [ null, %2 ]
  %10 = getelementptr i8, ptr %8, i64 -264
  %11 = getelementptr i8, ptr %8, i64 -128
  tail call void @_raw_spin_lock(ptr noundef %11) #3
  %12 = getelementptr i8, ptr %8, i64 -112
  %13 = load i64, ptr %12, align 8
  %14 = and i64 %13, 56
  %15 = icmp eq i64 %14, 0
  br i1 %15, label %16, label %28

16:                                               ; preds = %7
  %17 = getelementptr i8, ptr %8, i64 -216
  %18 = load ptr, ptr %17, align 8
  %19 = getelementptr inbounds i8, ptr %18, i64 16
  %20 = load ptr, ptr %19, align 8
  %21 = icmp eq ptr %20, null
  br i1 %21, label %22, label %29

22:                                               ; preds = %16
  %23 = tail call i64 asm "movq %gs:${1:P}, $0", "=r,p,~{dirflag},~{fpsr},~{flags}"(ptr nonnull @pcpu_hot) #4, !srcloc !6
  %24 = inttoptr i64 %23 to ptr
  %25 = load volatile i64, ptr %24, align 8
  %26 = and i64 %25, 8
  %27 = icmp eq i64 %26, 0
  br i1 %27, label %28, label %29

28:                                               ; preds = %22, %7
  tail call void @_raw_spin_unlock(ptr noundef %11) #3
  br label %33

29:                                               ; preds = %22, %16
  tail call void @__iget(ptr noundef %10) #3
  tail call void @_raw_spin_unlock(ptr noundef %11) #3
  tail call void @_raw_spin_unlock(ptr noundef %3) #3
  %30 = load ptr, ptr %17, align 8
  %31 = tail call i64 @invalidate_mapping_pages(ptr noundef %30, i64 noundef 0, i64 noundef -1) #3
  tail call void @iput(ptr noundef %9) #3
  %32 = tail call i32 @__SCT__cond_resched() #3
  tail call void @_raw_spin_lock(ptr noundef %3) #3
  br label %33

33:                                               ; preds = %29, %28
  %34 = phi ptr [ %9, %28 ], [ %10, %29 ]
  %35 = load ptr, ptr %8, align 8
  %36 = icmp eq ptr %35, %4
  br i1 %36, label %37, label %7, !llvm.loop !7

37:                                               ; preds = %33, %2
  %38 = phi ptr [ null, %2 ], [ %34, %33 ]
  tail call void @_raw_spin_unlock(ptr noundef %3) #3
  tail call void @iput(ptr noundef %38) #3
  ret void
}

; Function Attrs: null_pointer_is_valid
declare dso_local void @drop_slab() local_unnamed_addr #1

; Function Attrs: cold null_pointer_is_valid
declare dso_local i32 @_printk(ptr noundef, ...) local_unnamed_addr #2

; Function Attrs: null_pointer_is_valid
declare dso_local void @__iget(ptr noundef) local_unnamed_addr #1

; Function Attrs: null_pointer_is_valid
declare dso_local i64 @invalidate_mapping_pages(ptr noundef, i64 noundef, i64 noundef) local_unnamed_addr #1

; Function Attrs: null_pointer_is_valid
declare dso_local void @iput(ptr noundef) local_unnamed_addr #1

; Function Attrs: null_pointer_is_valid
declare dso_local void @_raw_spin_lock(ptr noundef) local_unnamed_addr #1 section ".spinlock.text"

; Function Attrs: null_pointer_is_valid
declare dso_local void @_raw_spin_unlock(ptr noundef) local_unnamed_addr #1 section ".spinlock.text"

; Function Attrs: null_pointer_is_valid
declare dso_local i32 @__SCT__cond_resched() local_unnamed_addr #1


!llvm.module.flags = !{!0, !1, !2, !3, !4}

!0 = !{i32 1, !"wchar_size", i32 2}
!1 = !{i32 8, !"cf-protection-branch", i32 1}
!2 = !{i32 4, !"function_return_thunk_extern", i32 1}
!3 = !{i32 4, !"indirect_branch_cs_prefix", i32 1}
!4 = !{i32 4, !"SkipRaxSetup", i32 1}
!5 = !{i64 2153785375}
!6 = !{i64 2148208187}
!7 = distinct !{!7, !8, !9}
!8 = !{!"llvm.loop.mustprogress"}
!9 = !{!"llvm.loop.unroll.disable"}
