; ModuleID = 'bench/linux/original/drop_caches.ll'
source_filename = "bench/linux/original/drop_caches.ll"
target datalayout = "e-m:e-p270:32:32-p271:32:32-p272:64:64-i64:64-i128:128-f80:128-n8:16:32:64-S128"
target triple = "x86_64-unknown-linux-gnu"

%struct.static_call_key = type { ptr, %union.anon.17 }
%union.anon.17 = type { i64 }
%struct.vm_event_state = type { [74 x i64] }
%struct.pcpu_hot = type { %union.anon.18 }
%union.anon.18 = type { %struct.anon.19, [16 x i8] }
%struct.anon.19 = type { ptr, i32, i32, i64, i64, ptr, i16, i8 }

@drop_caches_sysctl_handler.stfu = internal unnamed_addr global i32 0, align 4
@sysctl_drop_caches = dso_local local_unnamed_addr global i32 0, align 4
@.str = private unnamed_addr constant [28 x i8] c"\016%s (%d): drop_caches: %d\0A\00", align 1
@_cond_resched.__UNIQUE_ID___addressable___SCK__cond_resched151 = internal global ptr @__SCK__cond_resched, section ".discard.addressable", align 8
@__SCK__cond_resched = external dso_local global %struct.static_call_key, align 8
@vm_event_states = external dso_local global %struct.vm_event_state, section ".data..percpu", align 8
@pcpu_hot = external dso_local global %struct.pcpu_hot, section ".data..percpu..shared_aligned", align 64
@llvm.compiler.used = appending global [1 x ptr] [ptr @_cond_resched.__UNIQUE_ID___addressable___SCK__cond_resched151], section "llvm.metadata"

; Function Attrs: fn_ret_thunk_extern nounwind null_pointer_is_valid
define dso_local i32 @drop_caches_sysctl_handler(ptr noundef %0, i32 noundef %1, ptr noundef %2, ptr noundef %3, ptr noundef %4) local_unnamed_addr #0 align 16 {
  %6 = tail call i32 @proc_dointvec_minmax(ptr noundef %0, i32 noundef %1, ptr noundef %2, ptr noundef %3, ptr noundef %4) #3
  %7 = icmp ne i32 %6, 0
  %8 = icmp eq i32 %1, 0
  %or.cond = or i1 %8, %7
  br i1 %or.cond, label %35, label %9

9:                                                ; preds = %5
  %10 = load i32, ptr @sysctl_drop_caches, align 4
  %11 = and i32 %10, 1
  %12 = icmp eq i32 %11, 0
  br i1 %12, label %14, label %13

13:                                               ; preds = %9
  tail call void @lru_add_drain_all() #3
  tail call void @iterate_supers(ptr noundef nonnull @drop_pagecache_sb, ptr noundef null) #3
  tail call void asm sideeffect "incq %gs:$0", "=*m,*m,~{dirflag},~{fpsr},~{flags}"(ptr nonnull elementtype(i64) getelementptr inbounds (%struct.vm_event_state, ptr @vm_event_states, i64 0, i32 0, i64 44), ptr nonnull elementtype(i64) getelementptr inbounds (%struct.vm_event_state, ptr @vm_event_states, i64 0, i32 0, i64 44)) #3, !srcloc !5
  %.pre = load i32, ptr @sysctl_drop_caches, align 4
  br label %14

14:                                               ; preds = %13, %9
  %15 = phi i32 [ %.pre, %13 ], [ %10, %9 ]
  %16 = and i32 %15, 2
  %17 = icmp eq i32 %16, 0
  br i1 %17, label %19, label %18

18:                                               ; preds = %14
  tail call void @drop_slab() #3
  tail call void asm sideeffect "incq %gs:$0", "=*m,*m,~{dirflag},~{fpsr},~{flags}"(ptr nonnull elementtype(i64) getelementptr inbounds (%struct.vm_event_state, ptr @vm_event_states, i64 0, i32 0, i64 45), ptr nonnull elementtype(i64) getelementptr inbounds (%struct.vm_event_state, ptr @vm_event_states, i64 0, i32 0, i64 45)) #3, !srcloc !5
  br label %19

19:                                               ; preds = %18, %14
  %20 = load i32, ptr @drop_caches_sysctl_handler.stfu, align 4
  %21 = icmp eq i32 %20, 0
  br i1 %21, label %22, label %30

22:                                               ; preds = %19
  %23 = tail call i64 asm "movq %gs:${1:P}, $0", "=r,p,~{dirflag},~{fpsr},~{flags}"(ptr nonnull @pcpu_hot) #4, !srcloc !6
  %24 = inttoptr i64 %23 to ptr
  %25 = getelementptr inbounds i8, ptr %24, i64 1800
  %26 = getelementptr inbounds i8, ptr %24, i64 1320
  %27 = load i32, ptr %26, align 8
  %28 = load i32, ptr @sysctl_drop_caches, align 4
  %29 = tail call i32 (ptr, ...) @_printk(ptr noundef nonnull @.str, ptr noundef %25, i32 noundef %27, i32 noundef %28) #5
  %.pre1 = load i32, ptr @drop_caches_sysctl_handler.stfu, align 4
  br label %30

30:                                               ; preds = %22, %19
  %31 = phi i32 [ %.pre1, %22 ], [ %20, %19 ]
  %32 = load i32, ptr @sysctl_drop_caches, align 4
  %33 = and i32 %32, 4
  %34 = or i32 %31, %33
  store i32 %34, ptr @drop_caches_sysctl_handler.stfu, align 4
  br label %35

35:                                               ; preds = %30, %5
  ret i32 %6
}

; Function Attrs: null_pointer_is_valid
declare dso_local i32 @proc_dointvec_minmax(ptr noundef, i32 noundef, ptr noundef, ptr noundef, ptr noundef) local_unnamed_addr #1

; Function Attrs: null_pointer_is_valid
declare dso_local void @lru_add_drain_all() local_unnamed_addr #1

; Function Attrs: null_pointer_is_valid
declare dso_local void @iterate_supers(ptr noundef, ptr noundef) local_unnamed_addr #1

; Function Attrs: fn_ret_thunk_extern nounwind null_pointer_is_valid
define internal void @drop_pagecache_sb(ptr noundef %0, ptr nocapture readnone %1) #0 align 16 {
  %3 = getelementptr inbounds i8, ptr %0, i64 1216
  tail call void @_raw_spin_lock(ptr noundef %3) #3
  %4 = getelementptr inbounds i8, ptr %0, i64 1224
  %5 = load ptr, ptr %4, align 8
  %6 = icmp eq ptr %5, %4
  br i1 %6, label %.loopexit, label %.preheader

.preheader:                                       ; preds = %2, %32
  %7 = phi ptr [ %34, %32 ], [ %5, %2 ]
  %8 = phi ptr [ %33, %32 ], [ null, %2 ]
  %9 = getelementptr i8, ptr %7, i64 -264
  %10 = getelementptr i8, ptr %7, i64 -128
  tail call void @_raw_spin_lock(ptr noundef %10) #3
  %11 = getelementptr i8, ptr %7, i64 -112
  %12 = load i64, ptr %11, align 8
  %13 = and i64 %12, 56
  %14 = icmp eq i64 %13, 0
  br i1 %14, label %15, label %27

15:                                               ; preds = %.preheader
  %16 = getelementptr i8, ptr %7, i64 -216
  %17 = load ptr, ptr %16, align 8
  %18 = getelementptr inbounds i8, ptr %17, i64 16
  %19 = load ptr, ptr %18, align 8
  %20 = icmp eq ptr %19, null
  br i1 %20, label %21, label %28

21:                                               ; preds = %15
  %22 = tail call i64 asm "movq %gs:${1:P}, $0", "=r,p,~{dirflag},~{fpsr},~{flags}"(ptr nonnull @pcpu_hot) #4, !srcloc !6
  %23 = inttoptr i64 %22 to ptr
  %24 = load volatile i64, ptr %23, align 8
  %25 = and i64 %24, 8
  %26 = icmp eq i64 %25, 0
  br i1 %26, label %27, label %28

27:                                               ; preds = %21, %.preheader
  tail call void @_raw_spin_unlock(ptr noundef %10) #3
  br label %32

28:                                               ; preds = %21, %15
  tail call void @__iget(ptr noundef %9) #3
  tail call void @_raw_spin_unlock(ptr noundef %10) #3
  tail call void @_raw_spin_unlock(ptr noundef %3) #3
  %29 = load ptr, ptr %16, align 8
  %30 = tail call i64 @invalidate_mapping_pages(ptr noundef %29, i64 noundef 0, i64 noundef -1) #3
  tail call void @iput(ptr noundef %8) #3
  %31 = tail call i32 @__SCT__cond_resched() #3
  tail call void @_raw_spin_lock(ptr noundef %3) #3
  br label %32

32:                                               ; preds = %28, %27
  %33 = phi ptr [ %8, %27 ], [ %9, %28 ]
  %34 = load ptr, ptr %7, align 8
  %35 = icmp eq ptr %34, %4
  br i1 %35, label %.loopexit, label %.preheader, !llvm.loop !7

.loopexit:                                        ; preds = %32, %2
  %36 = phi ptr [ null, %2 ], [ %33, %32 ]
  tail call void @_raw_spin_unlock(ptr noundef %3) #3
  tail call void @iput(ptr noundef %36) #3
  ret void
}

; Function Attrs: null_pointer_is_valid
declare dso_local void @drop_slab() local_unnamed_addr #1

; Function Attrs: cold null_pointer_is_valid
declare dso_local i32 @_printk(ptr noundef, ...) local_unnamed_addr #2

; Function Attrs: null_pointer_is_valid
declare dso_local void @__iget(ptr noundef) local_unnamed_addr #1

; Function Attrs: null_pointer_is_valid
declare dso_local i64 @invalidate_mapping_pages(ptr noundef, i64 noundef, i64 noundef) local_unnamed_addr #1

; Function Attrs: null_pointer_is_valid
declare dso_local void @iput(ptr noundef) local_unnamed_addr #1

; Function Attrs: null_pointer_is_valid
declare dso_local void @_raw_spin_lock(ptr noundef) local_unnamed_addr #1 section ".spinlock.text"

; Function Attrs: null_pointer_is_valid
declare dso_local void @_raw_spin_unlock(ptr noundef) local_unnamed_addr #1 section ".spinlock.text"

; Function Attrs: null_pointer_is_valid
declare dso_local i32 @__SCT__cond_resched() local_unnamed_addr #1


!llvm.module.flags = !{!0, !1, !2, !3, !4}

!0 = !{i32 1, !"wchar_size", i32 2}
!1 = !{i32 8, !"cf-protection-branch", i32 1}
!2 = !{i32 4, !"function_return_thunk_extern", i32 1}
!3 = !{i32 4, !"indirect_branch_cs_prefix", i32 1}
!4 = !{i32 4, !"SkipRaxSetup", i32 1}
!5 = !{i64 2153785375}
!6 = !{i64 2148208187}
!7 = distinct !{!7, !8, !9}
!8 = !{!"llvm.loop.mustprogress"}
!9 = !{!"llvm.loop.unroll.disable"}
